; Function Attrs: mustprogress nofree norecurse nosync nounwind willreturn memory(argmem: read) uwtable
define internal range(i32 1, 4) i32 @pg_euckr_mblen(ptr noundef readonly captures(none) %0) #0 {
  %.val = load i8, ptr %0, align 1
  switch i8 %.val, label %3 [
    i8 -114, label %pg_euc_mblen.exit
    i8 -113, label %2
  ]

2:                                                ; preds = %1
  br label %pg_euc_mblen.exit

3:                                                ; preds = %1
  %.not.i = icmp sgt i8 %.val, -1
  %..i = select i1 %.not.i, i32 1, i32 2
  br label %pg_euc_mblen.exit

pg_euc_mblen.exit:                                ; preds = %1, %2, %3
  %.0.i = phi i32 [ 3, %2 ], [ 2, %1 ], [ %..i, %3 ]
  ret i32 %.0.i
}